target datalayout = "e-m:e-p270:32:32-p271:32:32-p272:64:64-i64:64-i128:128-f80:128-n8:16:32:64-S128"
target triple = "x86_64-pc-linux-gnu"

%struct.CVodeMemRec = type { double, ptr, ptr, i32, i32, i32, double, double, ptr, i32, ptr, ptr, i32, ptr, i32, i32, double, double, ptr, i32, i32, i32, ptr, ptr, ptr, i32, i32, ptr, ptr, ptr, i32, double, i32, i32, double, ptr, ptr, i32, ptr, ptr, i32, i32, i32, double, ptr, ptr, [13 x ptr], ptr, ptr, ptr, ptr, ptr, [13 x ptr], ptr, ptr, ptr, ptr, [13 x ptr], ptr, ptr, ptr, ptr, ptr, i32, [13 x ptr], ptr, ptr, ptr, ptr, ptr, i32, double, i32, i32, i32, i32, i32, double, double, double, double, double, double, double, double, [14 x double], [6 x double], [13 x double], double, double, double, double, double, double, double, double, double, double, double, i32, ptr, i32, i64, i32, i32, i32, i32, i32, double, double, double, i64, i64, i64, i64, i64, i64, i64, i64, i64, ptr, i64, i64, ptr, i64, i64, i64, i64, i64, i64, i32, i64, i64, i64, i64, i64, i64, double, double, double, ptr, ptr, ptr, ptr, ptr, i32, i32, i64, double, double, double, i32, double, i32, i32, i32, i32, i32, i32, i32, i32, i32, i32, i32, i32, i32, i32, i32, i32, ptr, ptr, ptr, i32, [6 x [4 x double]], i32, i64, ptr, i32, ptr, ptr, double, double, double, ptr, ptr, ptr, double, double, i32, i32, i64, ptr, i32, i32, ptr, i32 }

@.str = private unnamed_addr constant [7 x i8] c"CVODES\00", align 1
@.str.2 = private unnamed_addr constant [26 x i8] c"cvode_mem = NULL illegal.\00", align 1
@.str.20 = private unnamed_addr constant [17 x i8] c"CVodeSetStopTime\00", align 1
@.str.21 = private unnamed_addr constant [81 x i8] c"The value tstop = %lg is behind current t = %lg in the direction of integration.\00", align 1

; Function Attrs: nounwind uwtable
define i32 @CVodeSetStopTime(ptr noundef %0, double noundef %1) #0 {
  %3 = alloca i32, align 4
  %4 = alloca ptr, align 8
  %5 = alloca double, align 8
  %6 = alloca ptr, align 8
  %7 = alloca i32, align 4
  store ptr %0, ptr %4, align 8, !tbaa !3
  store double %1, ptr %5, align 8, !tbaa !36
  call void @llvm.lifetime.start.p0(i64 8, ptr %6) #5
  %8 = load ptr, ptr %4, align 8, !tbaa !3
  %9 = icmp eq ptr %8, null
  br i1 %9, label %10, label %11

10:                                               ; preds = %2
  call void (ptr, i32, ptr, ptr, ptr, ...) @cvProcessError(ptr noundef null, i32 noundef -21, ptr noundef @.str, ptr noundef @.str.20, ptr noundef @.str.2)
  store i32 -21, ptr %3, align 4
  store i32 1, ptr %7, align 4
  br label %41

11:                                               ; preds = %2
  %12 = load ptr, ptr %4, align 8, !tbaa !3
  store ptr %12, ptr %6, align 8, !tbaa !7
  %13 = load ptr, ptr %6, align 8, !tbaa !7
  %14 = getelementptr inbounds nuw %struct.CVodeMemRec, ptr %13, i32 0, i32 111
  %15 = load i64, ptr %14, align 8, !tbaa !40
  %16 = icmp sgt i64 %15, 0
  br i1 %16, label %17, label %35

17:                                               ; preds = %11
  %18 = load double, ptr %5, align 8, !tbaa !36
  %19 = load ptr, ptr %6, align 8, !tbaa !7
  %20 = getelementptr inbounds nuw %struct.CVodeMemRec, ptr %19, i32 0, i32 83
  %21 = load double, ptr %20, align 8, !tbaa !41
  %22 = fsub double %18, %21
  %23 = load ptr, ptr %6, align 8, !tbaa !7
  %24 = getelementptr inbounds nuw %struct.CVodeMemRec, ptr %23, i32 0, i32 78
  %25 = load double, ptr %24, align 8, !tbaa !42
  %26 = fmul double %22, %25
  %27 = fcmp olt double %26, 0.000000e+00
  br i1 %27, label %28, label %34

28:                                               ; preds = %17
  %29 = load ptr, ptr %6, align 8, !tbaa !7
  %30 = load double, ptr %5, align 8, !tbaa !36
  %31 = load ptr, ptr %6, align 8, !tbaa !7
  %32 = getelementptr inbounds nuw %struct.CVodeMemRec, ptr %31, i32 0, i32 83
  %33 = load double, ptr %32, align 8, !tbaa !41
  call void (ptr, i32, ptr, ptr, ptr, ...) @cvProcessError(ptr noundef %29, i32 noundef -22, ptr noundef @.str, ptr noundef @.str.20, ptr noundef @.str.21, double noundef %30, double noundef %33)
  store i32 -22, ptr %3, align 4
  store i32 1, ptr %7, align 4
  br label %41

34:                                               ; preds = %17
  br label %35

35:                                               ; preds = %34, %11
  %36 = load double, ptr %5, align 8, !tbaa !36
  %37 = load ptr, ptr %6, align 8, !tbaa !7
  %38 = getelementptr inbounds nuw %struct.CVodeMemRec, ptr %37, i32 0, i32 71
  store double %36, ptr %38, align 8, !tbaa !43
  %39 = load ptr, ptr %6, align 8, !tbaa !7
  %40 = getelementptr inbounds nuw %struct.CVodeMemRec, ptr %39, i32 0, i32 70
  store i32 1, ptr %40, align 8, !tbaa !44
  store i32 0, ptr %3, align 4
  store i32 1, ptr %7, align 4
  br label %41

41:                                               ; preds = %35, %28, %10
  call void @llvm.lifetime.end.p0(i64 8, ptr %6) #5
  %42 = load i32, ptr %3, align 4
  ret i32 %42
}